Certificate:
    Data:
        Version: 3 (0x2)
        Serial Number:
            1c:99:6e:36:31:5d:18:71:95:6d:1d:7a:f4:e9:af:be:24:a4:93:da
        Signature Algorithm: ecdsa-with-SHA256
        Issuer: C = FR, L = Limoges, O = CertifPlus, OU = SecuTIC, CN = localhost
        Validity
            Not Before: May 15 15:56:57 2023 GMT
            Not After : Jun 14 15:56:57 2023 GMT
        Subject: C = FR, L = Limoges, O = CertifPlus, OU = SecuTIC, CN = localhost
        Subject Public Key Info:
            Public Key Algorithm: id-ecPublicKey
                Public-Key: (256 bit)
                pub:
                    04:ce:cc:90:34:eb:26:0c:53:0b:0e:b7:36:3d:db:
                    f1:5f:5a:99:92:51:67:a8:6d:36:31:f4:7b:32:5e:
                    0a:df:d4:b7:19:f7:ae:45:e7:d3:4d:87:18:c1:81:
                    43:63:2e:8c:82:63:09:79:47:af:da:ca:72:87:02:
                    8c:fe:5f:e6:ca
                ASN1 OID: prime256v1
                NIST CURVE: P-256
        X509v3 extensions:
            X509v3 Basic Constraints: 
                CA:TRUE
            X509v3 Key Usage: 
                Digital Signature
            X509v3 Subject Key Identifier: 
                88:13:0F:10:04:ED:BD:85:43:F3:C6:A0:4B:C4:DE:72:4B:93:3D:78
    Signature Algorithm: ecdsa-with-SHA256
    Signature Value:
        30:45:02:20:3a:e5:0a:ae:ec:fa:23:3d:e7:49:c2:a4:f3:6a:
        08:46:62:2c:c7:57:f7:36:4a:bd:8b:57:11:86:37:cf:14:3c:
        02:21:00:da:66:d4:b1:c2:10:7e:dc:c0:21:9d:84:3d:bf:94:
        bc:6c:e7:27:2c:67:04:60:9e:da:59:5d:a5:6b:27:d2:93
-----BEGIN CERTIFICATE-----
MIIB8jCCAZigAwIBAgIUHJluNjFdGHGVbR169OmvviSkk9owCgYIKoZIzj0EAwIw
WjELMAkGA1UEBhMCRlIxEDAOBgNVBAcMB0xpbW9nZXMxEzARBgNVBAoMCkNlcnRp
ZlBsdXMxEDAOBgNVBAsMB1NlY3VUSUMxEjAQBgNVBAMMCWxvY2FsaG9zdDAeFw0y
MzA1MTUxNTU2NTdaFw0yMzA2MTQxNTU2NTdaMFoxCzAJBgNVBAYTAkZSMRAwDgYD
VQQHDAdMaW1vZ2VzMRMwEQYDVQQKDApDZXJ0aWZQbHVzMRAwDgYDVQQLDAdTZWN1
VElDMRIwEAYDVQQDDAlsb2NhbGhvc3QwWTATBgcqhkjOPQIBBggqhkjOPQMBBwNC
AATOzJA06yYMUwsOtzY92/FfWpmSUWeobTYx9HsyXgrf1LcZ965F59NNhxjBgUNj
LoyCYwl5R6/aynKHAoz+X+bKozwwOjAMBgNVHRMEBTADAQH/MAsGA1UdDwQEAwIH
gDAdBgNVHQ4EFgQUiBMPEATtvYVD88agS8TeckuTPXgwCgYIKoZIzj0EAwIDSAAw
RQIgOuUKruz6Iz3nScKk82oIRmIsx1f3Nkq9i1cRhjfPFDwCIQDaZtSxwhB+3MAh
nYQ9v5S8bOcnLGcEYJ7aWV2layfSkw==
-----END CERTIFICATE-----
